target datalayout = "e-m:e-p270:32:32-p271:32:32-p272:64:64-i64:64-i128:128-f80:128-n8:16:32:64-S128"
target triple = "x86_64-pc-linux-gnu"

; Function Attrs: mustprogress nounwind uwtable
define linkonce_odr noundef zeroext i1 @_ZSt5isnanf(float noundef %0) #1 comdat {
  %2 = alloca float, align 4
  store float %0, ptr %2, align 4
  %3 = load float, ptr %2, align 4
  %4 = call i1 @llvm.is.fpclass.f32(float %3, i32 3)
  ret i1 %4
}

; Function Attrs: mustprogress nounwind uwtable
define linkonce_odr hidden noundef i32 @_Z7g_isnanf(float noundef %0) #1 comdat {
  %2 = alloca float, align 4
  store float %0, ptr %2, align 4
  %3 = load float, ptr %2, align 4
  %4 = call noundef zeroext i1 @_ZSt5isnanf(float noundef %3)
  %5 = zext i1 %4 to i32
  ret i32 %5
}

; Function Attrs: mustprogress nounwind uwtable
define linkonce_odr hidden void @_ZN2os22verify_stack_alignmentEv() #1 comdat align 2 {
  ret void
}

; Function Attrs: mustprogress nounwind uwtable
define hidden noundef i64 @_ZN13SharedRuntime3f2lEf(float noundef %0) #1 align 2 {
  %2 = alloca i64, align 8
  %3 = alloca float, align 4
  store float %0, ptr %3, align 4
  call void @_ZN2os22verify_stack_alignmentEv()
  %4 = load float, ptr %3, align 4
  %5 = call noundef i32 @_Z7g_isnanf(float noundef %4)
  %6 = icmp ne i32 %5, 0
  br i1 %6, label %7, label %8

7:                                                ; preds = %1
  store i64 0, ptr %2, align 8
  br label %19

8:                                                ; preds = %1
  %9 = load float, ptr %3, align 4
  %10 = fcmp oge float %9, 0x43E0000000000000
  br i1 %10, label %11, label %12

11:                                               ; preds = %8
  store i64 9223372036854775807, ptr %2, align 8
  br label %19

12:                                               ; preds = %8
  %13 = load float, ptr %3, align 4
  %14 = fcmp ole float %13, 0xC3E0000000000000
  br i1 %14, label %15, label %16

15:                                               ; preds = %12
  store i64 -9223372036854775808, ptr %2, align 8
  br label %19

16:                                               ; preds = %12
  %17 = load float, ptr %3, align 4
  %18 = fptosi float %17 to i64
  store i64 %18, ptr %2, align 8
  br label %19

19:                                               ; preds = %16, %15, %11, %7
  %20 = load i64, ptr %2, align 8
  ret i64 %20
}