; Function Attrs: mustprogress nofree norecurse nosync nounwind willreturn memory(none) uwtable
define hidden noundef i64 @_ZN13SharedRuntime3f2lEf(float noundef %0) local_unnamed_addr #2 align 2 {
  %2 = fcmp ord float %0, 0.000000e+00
  br i1 %2, label %3, label %9

3:                                                ; preds = %1
  %4 = fcmp ult float %0, 0x43E0000000000000
  br i1 %4, label %5, label %9

5:                                                ; preds = %3
  %6 = fcmp ugt float %0, 0xC3E0000000000000
  br i1 %6, label %7, label %9

7:                                                ; preds = %5
  %8 = fptosi float %0 to i64
  br label %9

9:                                                ; preds = %5, %3, %1, %7
  %.0 = phi i64 [ %8, %7 ], [ 0, %1 ], [ 9223372036854775807, %3 ], [ -9223372036854775808, %5 ]
  ret i64 %.0
}